target datalayout = "e-m:e-p270:32:32-p271:32:32-p272:64:64-i64:64-i128:128-f80:128-n8:16:32:64-S128"
target triple = "x86_64-unknown-linux-gnu"

%"class.google::protobuf::io::Tokenizer" = type { %"struct.google::protobuf::io::Tokenizer::Token", %"struct.google::protobuf::io::Tokenizer::Token", ptr, ptr, i8, ptr, i32, i32, i8, i32, i32, ptr, i32, i8, i32, i8, i8, i8, i8 }
%"struct.google::protobuf::io::Tokenizer::Token" = type <{ i32, [4 x i8], %"class.std::__cxx11::basic_string", i32, i32, i32, [4 x i8] }>
%"class.std::__cxx11::basic_string" = type { %"struct.std::__cxx11::basic_string<char>::_Alloc_hider", i64, %union.anon }
%"struct.std::__cxx11::basic_string<char>::_Alloc_hider" = type { ptr }
%union.anon = type { i64, [8 x i8] }

; Function Attrs: mustprogress nounwind uwtable
define internal noundef zeroext i1 @_ZN6google8protobuf2io12_GLOBAL__N_110Whitespace7InClassEc(i8 noundef signext %c) #4 align 2 {
entry:
  %c.addr = alloca i8, align 1
  store i8 %c, ptr %c.addr, align 1
  %0 = load i8, ptr %c.addr, align 1
  %conv = sext i8 %0 to i32
  %cmp = icmp eq i32 %conv, 32
  br i1 %cmp, label %lor.end, label %lor.lhs.false

lor.lhs.false:                                    ; preds = %entry
  %1 = load i8, ptr %c.addr, align 1
  %conv1 = sext i8 %1 to i32
  %cmp2 = icmp eq i32 %conv1, 10
  br i1 %cmp2, label %lor.end, label %lor.lhs.false3

lor.lhs.false3:                                   ; preds = %lor.lhs.false
  %2 = load i8, ptr %c.addr, align 1
  %conv4 = sext i8 %2 to i32
  %cmp5 = icmp eq i32 %conv4, 9
  br i1 %cmp5, label %lor.end, label %lor.lhs.false6

lor.lhs.false6:                                   ; preds = %lor.lhs.false3
  %3 = load i8, ptr %c.addr, align 1
  %conv7 = sext i8 %3 to i32
  %cmp8 = icmp eq i32 %conv7, 13
  br i1 %cmp8, label %lor.end, label %lor.lhs.false9

lor.lhs.false9:                                   ; preds = %lor.lhs.false6
  %4 = load i8, ptr %c.addr, align 1
  %conv10 = sext i8 %4 to i32
  %cmp11 = icmp eq i32 %conv10, 11
  br i1 %cmp11, label %lor.end, label %lor.rhs

lor.rhs:                                          ; preds = %lor.lhs.false9
  %5 = load i8, ptr %c.addr, align 1
  %conv12 = sext i8 %5 to i32
  %cmp13 = icmp eq i32 %conv12, 12
  br label %lor.end

lor.end:                                          ; preds = %lor.rhs, %lor.lhs.false9, %lor.lhs.false6, %lor.lhs.false3, %lor.lhs.false, %entry
  %6 = phi i1 [ true, %lor.lhs.false9 ], [ true, %lor.lhs.false6 ], [ true, %lor.lhs.false3 ], [ true, %lor.lhs.false ], [ true, %entry ], [ %cmp13, %lor.rhs ]
  ret i1 %6
}

; Function Attrs: mustprogress nounwind uwtable
define internal noundef zeroext i1 @_ZN6google8protobuf2io12_GLOBAL__N_119WhitespaceNoNewline7InClassEc(i8 noundef signext %c) #4 align 2 {
entry:
  %c.addr = alloca i8, align 1
  store i8 %c, ptr %c.addr, align 1
  %0 = load i8, ptr %c.addr, align 1
  %conv = sext i8 %0 to i32
  %cmp = icmp eq i32 %conv, 32
  br i1 %cmp, label %lor.end, label %lor.lhs.false

lor.lhs.false:                                    ; preds = %entry
  %1 = load i8, ptr %c.addr, align 1
  %conv1 = sext i8 %1 to i32
  %cmp2 = icmp eq i32 %conv1, 9
  br i1 %cmp2, label %lor.end, label %lor.lhs.false3

lor.lhs.false3:                                   ; preds = %lor.lhs.false
  %2 = load i8, ptr %c.addr, align 1
  %conv4 = sext i8 %2 to i32
  %cmp5 = icmp eq i32 %conv4, 13
  br i1 %cmp5, label %lor.end, label %lor.lhs.false6

lor.lhs.false6:                                   ; preds = %lor.lhs.false3
  %3 = load i8, ptr %c.addr, align 1
  %conv7 = sext i8 %3 to i32
  %cmp8 = icmp eq i32 %conv7, 11
  br i1 %cmp8, label %lor.end, label %lor.rhs

lor.rhs:                                          ; preds = %lor.lhs.false6
  %4 = load i8, ptr %c.addr, align 1
  %conv9 = sext i8 %4 to i32
  %cmp10 = icmp eq i32 %conv9, 12
  br label %lor.end

lor.end:                                          ; preds = %lor.rhs, %lor.lhs.false6, %lor.lhs.false3, %lor.lhs.false, %entry
  %5 = phi i1 [ true, %lor.lhs.false6 ], [ true, %lor.lhs.false3 ], [ true, %lor.lhs.false ], [ true, %entry ], [ %cmp10, %lor.rhs ]
  ret i1 %5
}

; Function Attrs: mustprogress uwtable
define internal void @_ZN6google8protobuf2io9Tokenizer17ConsumeZeroOrMoreINS1_12_GLOBAL__N_110WhitespaceEEEvv(ptr noundef nonnull align 8 dereferenceable(192) %this) #6 align 2 {
entry:
  %this.addr = alloca ptr, align 8
  store ptr %this, ptr %this.addr, align 8
  %this1 = load ptr, ptr %this.addr, align 8
  br label %while.cond

while.cond:                                       ; preds = %while.body, %entry
  %current_char_ = getelementptr inbounds %"class.google::protobuf::io::Tokenizer", ptr %this1, i32 0, i32 4
  %0 = load i8, ptr %current_char_, align 8
  %call = call noundef zeroext i1 @_ZN6google8protobuf2io12_GLOBAL__N_110Whitespace7InClassEc(i8 noundef signext %0)
  br i1 %call, label %while.body, label %while.end

while.body:                                       ; preds = %while.cond
  call void @_ZN6google8protobuf2io9Tokenizer8NextCharEv(ptr noundef nonnull align 8 dereferenceable(192) %this1)
  br label %while.cond, !llvm.loop !15

while.end:                                        ; preds = %while.cond
  ret void
}

; Function Attrs: mustprogress uwtable
define internal noundef zeroext i1 @_ZN6google8protobuf2io9Tokenizer13TryConsumeOneINS1_12_GLOBAL__N_110WhitespaceEEEbv(ptr noundef nonnull align 8 dereferenceable(192) %this) #6 align 2 {
entry:
  %retval = alloca i1, align 1
  %this.addr = alloca ptr, align 8
  store ptr %this, ptr %this.addr, align 8
  %this1 = load ptr, ptr %this.addr, align 8
  %current_char_ = getelementptr inbounds %"class.google::protobuf::io::Tokenizer", ptr %this1, i32 0, i32 4
  %0 = load i8, ptr %current_char_, align 8
  %call = call noundef zeroext i1 @_ZN6google8protobuf2io12_GLOBAL__N_110Whitespace7InClassEc(i8 noundef signext %0)
  br i1 %call, label %if.then, label %if.else

if.then:                                          ; preds = %entry
  call void @_ZN6google8protobuf2io9Tokenizer8NextCharEv(ptr noundef nonnull align 8 dereferenceable(192) %this1)
  store i1 true, ptr %retval, align 1
  br label %return

if.else:                                          ; preds = %entry
  store i1 false, ptr %retval, align 1
  br label %return

return:                                           ; preds = %if.else, %if.then
  %1 = load i1, ptr %retval, align 1
  ret i1 %1
}

; Function Attrs: mustprogress uwtable
define internal void @_ZN6google8protobuf2io9Tokenizer17ConsumeZeroOrMoreINS1_12_GLOBAL__N_119WhitespaceNoNewlineEEEvv(ptr noundef nonnull align 8 dereferenceable(192) %this) #6 align 2 {
entry:
  %this.addr = alloca ptr, align 8
  store ptr %this, ptr %this.addr, align 8
  %this1 = load ptr, ptr %this.addr, align 8
  br label %while.cond

while.cond:                                       ; preds = %while.body, %entry
  %current_char_ = getelementptr inbounds %"class.google::protobuf::io::Tokenizer", ptr %this1, i32 0, i32 4
  %0 = load i8, ptr %current_char_, align 8
  %call = call noundef zeroext i1 @_ZN6google8protobuf2io12_GLOBAL__N_119WhitespaceNoNewline7InClassEc(i8 noundef signext %0)
  br i1 %call, label %while.body, label %while.end

while.body:                                       ; preds = %while.cond
  call void @_ZN6google8protobuf2io9Tokenizer8NextCharEv(ptr noundef nonnull align 8 dereferenceable(192) %this1)
  br label %while.cond, !llvm.loop !14

while.end:                                        ; preds = %while.cond
  ret void
}

; Function Attrs: mustprogress uwtable
define internal noundef zeroext i1 @_ZN6google8protobuf2io9Tokenizer13TryConsumeOneINS1_12_GLOBAL__N_119WhitespaceNoNewlineEEEbv(ptr noundef nonnull align 8 dereferenceable(192) %this) #6 align 2 {
entry:
  %retval = alloca i1, align 1
  %this.addr = alloca ptr, align 8
  store ptr %this, ptr %this.addr, align 8
  %this1 = load ptr, ptr %this.addr, align 8
  %current_char_ = getelementptr inbounds %"class.google::protobuf::io::Tokenizer", ptr %this1, i32 0, i32 4
  %0 = load i8, ptr %current_char_, align 8
  %call = call noundef zeroext i1 @_ZN6google8protobuf2io12_GLOBAL__N_119WhitespaceNoNewline7InClassEc(i8 noundef signext %0)
  br i1 %call, label %if.then, label %if.else

if.then:                                          ; preds = %entry
  call void @_ZN6google8protobuf2io9Tokenizer8NextCharEv(ptr noundef nonnull align 8 dereferenceable(192) %this1)
  store i1 true, ptr %retval, align 1
  br label %return

if.else:                                          ; preds = %entry
  store i1 false, ptr %retval, align 1
  br label %return

return:                                           ; preds = %if.else, %if.then
  %1 = load i1, ptr %retval, align 1
  ret i1 %1
}

; Function Attrs: mustprogress uwtable
define noundef zeroext i1 @_ZN6google8protobuf2io9Tokenizer20TryConsumeWhitespaceEv(ptr noundef nonnull align 8 dereferenceable(192) %this) #6 align 2 {
entry:
  %retval = alloca i1, align 1
  %this.addr = alloca ptr, align 8
  store ptr %this, ptr %this.addr, align 8
  %this1 = load ptr, ptr %this.addr, align 8
  %report_newlines_ = getelementptr inbounds %"class.google::protobuf::io::Tokenizer", ptr %this1, i32 0, i32 18
  %0 = load i8, ptr %report_newlines_, align 1
  %tobool = trunc i8 %0 to i1
  br i1 %tobool, label %if.then, label %if.end3

if.then:                                          ; preds = %entry
  %call = call noundef zeroext i1 @_ZN6google8protobuf2io9Tokenizer13TryConsumeOneINS1_12_GLOBAL__N_119WhitespaceNoNewlineEEEbv(ptr noundef nonnull align 8 dereferenceable(192) %this1)
  br i1 %call, label %if.then2, label %if.end

if.then2:                                         ; preds = %if.then
  call void @_ZN6google8protobuf2io9Tokenizer17ConsumeZeroOrMoreINS1_12_GLOBAL__N_119WhitespaceNoNewlineEEEvv(ptr noundef nonnull align 8 dereferenceable(192) %this1)
  %current_ = getelementptr inbounds %"class.google::protobuf::io::Tokenizer", ptr %this1, i32 0, i32 0
  %type = getelementptr inbounds %"struct.google::protobuf::io::Tokenizer::Token", ptr %current_, i32 0, i32 0
  store i32 7, ptr %type, align 8
  store i1 true, ptr %retval, align 1
  br label %return

if.end:                                           ; preds = %if.then
  store i1 false, ptr %retval, align 1
  br label %return

if.end3:                                          ; preds = %entry
  %call4 = call noundef zeroext i1 @_ZN6google8protobuf2io9Tokenizer13TryConsumeOneINS1_12_GLOBAL__N_110WhitespaceEEEbv(ptr noundef nonnull align 8 dereferenceable(192) %this1)
  br i1 %call4, label %if.then5, label %if.end9

if.then5:                                         ; preds = %if.end3
  call void @_ZN6google8protobuf2io9Tokenizer17ConsumeZeroOrMoreINS1_12_GLOBAL__N_110WhitespaceEEEvv(ptr noundef nonnull align 8 dereferenceable(192) %this1)
  %current_6 = getelementptr inbounds %"class.google::protobuf::io::Tokenizer", ptr %this1, i32 0, i32 0
  %type7 = getelementptr inbounds %"struct.google::protobuf::io::Tokenizer::Token", ptr %current_6, i32 0, i32 0
  store i32 7, ptr %type7, align 8
  %report_whitespace_ = getelementptr inbounds %"class.google::protobuf::io::Tokenizer", ptr %this1, i32 0, i32 17
  %1 = load i8, ptr %report_whitespace_, align 2
  %tobool8 = trunc i8 %1 to i1
  store i1 %tobool8, ptr %retval, align 1
  br label %return

if.end9:                                          ; preds = %if.end3
  store i1 false, ptr %retval, align 1
  br label %return

return:                                           ; preds = %if.end9, %if.then5, %if.end, %if.then2
  %2 = load i1, ptr %retval, align 1
  ret i1 %2
}