; Function Attrs: mustprogress uwtable
define noundef zeroext i1 @_ZN6google8protobuf2io9Tokenizer20TryConsumeWhitespaceEv(ptr noundef nonnull align 8 dereferenceable(192) %this) local_unnamed_addr #6 align 2 {
entry:
  %report_newlines_ = getelementptr inbounds nuw i8, ptr %this, i64 191
  %0 = load i8, ptr %report_newlines_, align 1
  %tobool = trunc i8 %0 to i1
  %current_char_.i = getelementptr inbounds nuw i8, ptr %this, i64 128
  %1 = load i8, ptr %current_char_.i, align 8
  br i1 %tobool, label %if.then, label %if.end3

if.then:                                          ; preds = %entry
  switch i8 %1, label %return [
    i8 32, label %while.cond.i.preheader
    i8 13, label %while.cond.i.preheader
    i8 11, label %while.cond.i.preheader
    i8 9, label %while.cond.i.preheader
    i8 12, label %while.cond.i.preheader
  ]

while.cond.i.preheader:                           ; preds = %if.then, %if.then, %if.then, %if.then, %if.then
  br label %while.cond.i

while.cond.i:                                     ; preds = %while.cond.i.backedge, %while.cond.i.preheader
  tail call void @_ZN6google8protobuf2io9Tokenizer8NextCharEv(ptr noundef nonnull align 8 dereferenceable(192) %this)
  %2 = load i8, ptr %current_char_.i, align 8
  switch i8 %2, label %_ZN6google8protobuf2io9Tokenizer17ConsumeZeroOrMoreINS1_12_GLOBAL__N_119WhitespaceNoNewlineEEEvv.exit [
    i8 32, label %while.cond.i.backedge
    i8 13, label %while.cond.i.backedge
    i8 11, label %while.cond.i.backedge
    i8 9, label %while.cond.i.backedge
    i8 12, label %while.cond.i.backedge
  ]

while.cond.i.backedge:                            ; preds = %while.cond.i, %while.cond.i, %while.cond.i, %while.cond.i, %while.cond.i
  br label %while.cond.i, !llvm.loop !12

_ZN6google8protobuf2io9Tokenizer17ConsumeZeroOrMoreINS1_12_GLOBAL__N_119WhitespaceNoNewlineEEEvv.exit: ; preds = %while.cond.i
  store i32 7, ptr %this, align 8
  br label %return

if.end3:                                          ; preds = %entry
  switch i8 %1, label %return [
    i8 32, label %while.cond.i5.preheader
    i8 13, label %while.cond.i5.preheader
    i8 11, label %while.cond.i5.preheader
    i8 10, label %while.cond.i5.preheader
    i8 9, label %while.cond.i5.preheader
    i8 12, label %while.cond.i5.preheader
  ]

while.cond.i5.preheader:                          ; preds = %if.end3, %if.end3, %if.end3, %if.end3, %if.end3, %if.end3
  br label %while.cond.i5

while.cond.i5:                                    ; preds = %while.cond.i5.backedge, %while.cond.i5.preheader
  tail call void @_ZN6google8protobuf2io9Tokenizer8NextCharEv(ptr noundef nonnull align 8 dereferenceable(192) %this)
  %3 = load i8, ptr %current_char_.i, align 8
  switch i8 %3, label %_ZN6google8protobuf2io9Tokenizer17ConsumeZeroOrMoreINS1_12_GLOBAL__N_110WhitespaceEEEvv.exit [
    i8 32, label %while.cond.i5.backedge
    i8 13, label %while.cond.i5.backedge
    i8 11, label %while.cond.i5.backedge
    i8 10, label %while.cond.i5.backedge
    i8 9, label %while.cond.i5.backedge
    i8 12, label %while.cond.i5.backedge
  ]

while.cond.i5.backedge:                           ; preds = %while.cond.i5, %while.cond.i5, %while.cond.i5, %while.cond.i5, %while.cond.i5, %while.cond.i5
  br label %while.cond.i5, !llvm.loop !14

_ZN6google8protobuf2io9Tokenizer17ConsumeZeroOrMoreINS1_12_GLOBAL__N_110WhitespaceEEEvv.exit: ; preds = %while.cond.i5
  store i32 7, ptr %this, align 8
  %report_whitespace_ = getelementptr inbounds nuw i8, ptr %this, i64 190
  %4 = load i8, ptr %report_whitespace_, align 2
  %tobool8 = trunc i8 %4 to i1
  br label %return

return:                                           ; preds = %if.end3, %if.then, %_ZN6google8protobuf2io9Tokenizer17ConsumeZeroOrMoreINS1_12_GLOBAL__N_110WhitespaceEEEvv.exit, %_ZN6google8protobuf2io9Tokenizer17ConsumeZeroOrMoreINS1_12_GLOBAL__N_119WhitespaceNoNewlineEEEvv.exit
  %retval.0 = phi i1 [ true, %_ZN6google8protobuf2io9Tokenizer17ConsumeZeroOrMoreINS1_12_GLOBAL__N_119WhitespaceNoNewlineEEEvv.exit ], [ %tobool8, %_ZN6google8protobuf2io9Tokenizer17ConsumeZeroOrMoreINS1_12_GLOBAL__N_110WhitespaceEEEvv.exit ], [ false, %if.then ], [ false, %if.end3 ]
  ret i1 %retval.0
}